; Function Attrs: mustprogress nounwind uwtable
define hidden noundef ptr @_ZN16ZObjectAllocator22shared_small_page_addrEv(ptr nocapture noundef nonnull readonly align 8 dereferenceable(40) %0) local_unnamed_addr #1 align 2 {
  %2 = getelementptr inbounds i8, ptr %0, i64 1
  %3 = load i8, ptr %2, align 1
  %4 = trunc i8 %3 to i1
  %5 = getelementptr inbounds i8, ptr %0, i64 32
  br i1 %4, label %6, label %21

6:                                                ; preds = %1
  %7 = load ptr, ptr @_ZN4ZCPU9_affinityE, align 8
  %8 = tail call align 4 ptr @llvm.threadlocal.address.p0(ptr align 4 @_ZN4ZCPU4_cpuE)
  %9 = load i32, ptr %8, align 4
  %10 = zext i32 %9 to i64
  %11 = getelementptr inbounds %class.PaddedEnd, ptr %7, i64 %10
  %12 = load ptr, ptr %11, align 8
  %13 = tail call align 8 ptr @llvm.threadlocal.address.p0(ptr align 8 @_ZN4ZCPU5_selfE)
  %14 = load ptr, ptr %13, align 8
  %15 = icmp eq ptr %12, %14
  br i1 %15, label %_ZN14ZPerCPUStorage2idEv.exit, label %16

16:                                               ; preds = %6
  %17 = tail call noundef i32 @_ZN4ZCPU7id_slowEv() #8
  %.pre = zext i32 %17 to i64
  br label %_ZN14ZPerCPUStorage2idEv.exit

_ZN14ZPerCPUStorage2idEv.exit:                    ; preds = %6, %16
  %.pre-phi = phi i64 [ %10, %6 ], [ %.pre, %16 ]
  %18 = load i64, ptr %5, align 8
  %19 = shl nuw nsw i64 %.pre-phi, 12
  %20 = add i64 %19, %18
  br label %23

21:                                               ; preds = %1
  %22 = load i64, ptr %5, align 8
  br label %23

23:                                               ; preds = %21, %_ZN14ZPerCPUStorage2idEv.exit
  %.in = phi i64 [ %20, %_ZN14ZPerCPUStorage2idEv.exit ], [ %22, %21 ]
  %24 = inttoptr i64 %.in to ptr
  ret ptr %24
}